target datalayout = "e-m:e-p270:32:32-p271:32:32-p272:64:64-i64:64-i128:128-f80:128-n8:16:32:64-S128"
target triple = "x86_64-pc-linux-gnu"

%class.LIR_Opr = type { i64 }
%class.ZLoadBarrierStubC1 = type { %class.CodeStub, i64, %class.LIR_Opr, %class.LIR_Opr, %class.LIR_Opr, ptr }
%class.CodeStub = type { ptr, %class.Label, %class.Label }
%class.Label = type <{ i32, [4 x i32], i32, ptr, i8, [7 x i8] }>
%class.LIRAccess = type { ptr, i64, %class.LIRAddressOpr, %class.LIRAddressOpr, i8, %class.LIR_Opr, ptr, ptr }
%class.LIRAddressOpr = type { ptr, %class.LIR_Opr }
%class.LIR_Address = type <{ %class.LIR_OprPtr, %class.LIR_Opr, %class.LIR_Opr, i32, [4 x i8], i64, i8, [7 x i8] }>
%class.LIR_OprPtr = type { ptr }
%class.Compilation = type { ptr, i32, i32, ptr, ptr, ptr, ptr, ptr, i32, ptr, i32, ptr, ptr, i8, i8, i8, i8, i8, i8, i8, i8, i8, ptr, ptr, i8, ptr, %class.ExceptionHandlerTable, %class.ImplicitExceptionTable, ptr, %class.CodeOffsets, %class.CodeBuffer, i8, i32, i32, ptr }
%class.ExceptionHandlerTable = type <{ ptr, i32, i32, %class.ReallocMark, [7 x i8] }>
%class.ReallocMark = type { i8 }
%class.ImplicitExceptionTable = type <{ i32, i32, ptr, %class.ReallocMark, [7 x i8] }>
%class.CodeOffsets = type { [8 x i32] }
%class.CodeBuffer = type { ptr, %class.CodeSection, %class.CodeSection, %class.CodeSection, ptr, ptr, ptr, i32, ptr, %class.OopRecorder, ptr, ptr, ptr, ptr, ptr, i8, i32 }
%class.CodeSection = type { ptr, ptr, ptr, ptr, ptr, ptr, ptr, ptr, i8, i8, i32, i8, ptr }
%class.OopRecorder = type { %class.ValueRecorder, %class.ValueRecorder.9, ptr }
%class.ValueRecorder = type <{ ptr, ptr, ptr, ptr, i8, [7 x i8] }>
%class.ValueRecorder.9 = type <{ ptr, ptr, ptr, ptr, i8, [7 x i8] }>
%class.FrameMap = type { i32, i32, i32, i32, i32, i32, ptr, ptr }
%class.ciEnv = type <{ ptr, %class.Arena, ptr, ptr, ptr, ptr, %class.CHeapStringHolder, i8, [3 x i8], i32, i8, [3 x i8], i32, ptr, ptr, ptr, ptr, i32, [4 x i8], i64, i8, i8, i8, i8, i8, i8, i8, i8, ptr, ptr, ptr, ptr, ptr, ptr, ptr, ptr, ptr, [1025 x i8], [7 x i8] }>
%class.Arena = type { i8, i8, i64, ptr, ptr, ptr, ptr }
%class.CHeapStringHolder = type { ptr }
%class.CompilerThread = type { %class.JavaThread, ptr, ptr, ptr, ptr, ptr, ptr, i8, ptr, %class.TimeStamp, ptr }
%class.JavaThread = type { %class.Thread, i8, %class.OopHandle, %class.OopHandle, %class.OopHandle, %class.OopHandle, %class.JavaFrameAnchor, ptr, %struct.JNIEnv_, ptr, ptr, ptr, ptr, ptr, ptr, ptr, ptr, %class.MemRegion, ptr, i8, ptr, ptr, ptr, i32, i32, %"struct.SafepointMechanism::ThreadData", ptr, ptr, i32, i32, i8, i8, i8, i8, i8, i8, i8, i32, i8, i32, i8, i8, i64, %union.anon, ptr, ptr, i64, i64, ptr, ptr, %class.StackOverflow, ptr, ptr, ptr, i32, i32, ptr, i32, i32, i32, ptr, ptr, i32, i64, i64, %class.StackWatermarks, %class.HandshakeState, ptr, i32, ptr, i32, i32, ptr, %class.Parker, ptr, ptr, %class.LockStack }
%class.Thread = type { %class.ThreadShadow.base, i64, [43 x i64], ptr, ptr, i32, ptr, i64, i64, %class.ThreadLocalAllocBuffer, i64, %class.ThreadHeapSampler, %class.ThreadStatisticalInfo, %class.JfrThreadLocal, ptr, ptr, ptr, ptr, ptr, ptr, i64, i32, i32, ptr, i32, i32, i32, i32, i8, ptr }
%class.ThreadShadow.base = type <{ ptr, ptr, ptr, i32 }>
%class.ThreadLocalAllocBuffer = type <{ ptr, ptr, ptr, ptr, ptr, i64, i64, i64, i64, i32, i32, i32, i32, i64, %class.AdaptiveWeightedAverage, [4 x i8] }>
%class.AdaptiveWeightedAverage = type { float, i32, i32, i8, float }
%class.ThreadHeapSampler = type { i64 }
%class.ThreadStatisticalInfo = type { i64, i64 }
%class.JfrThreadLocal = type <{ ptr, ptr, ptr, ptr, ptr, ptr, ptr, ptr, ptr, ptr, %class.RefCountHandle, i64, i64, i64, i64, i64, i64, i64, i64, i64, i64, i64, i32, i32, i32, i16, i8, i8, i8, i8, i8, [5 x i8] }>
%class.RefCountHandle = type { ptr }
%class.OopHandle = type { ptr }
%class.JavaFrameAnchor = type { ptr, ptr, ptr }
%struct.JNIEnv_ = type { ptr }
%class.MemRegion = type { ptr, i64 }
%"struct.SafepointMechanism::ThreadData" = type { i64, i64 }
%union.anon = type { ptr }
%class.StackOverflow = type { i32, ptr, ptr, ptr, ptr, ptr, ptr }
%class.StackWatermarks = type { ptr }
%class.HandshakeState = type <{ ptr, %class.FilterQueue, %class.Monitor, ptr, i8, i8, i8, [5 x i8] }>
%class.FilterQueue = type { ptr }
%class.Monitor = type { %class.Mutex }
%class.Mutex = type { ptr, %class.PlatformMonitor, ptr }
%class.PlatformMonitor = type { %class.PlatformMutex, %union.pthread_cond_t }
%class.PlatformMutex = type { %union.pthread_mutex_t }
%union.pthread_mutex_t = type { %struct.__pthread_mutex_s }
%struct.__pthread_mutex_s = type { i32, i32, i32, i32, i32, i16, i16, %struct.__pthread_internal_list }
%struct.__pthread_internal_list = type { ptr, ptr }
%union.pthread_cond_t = type { %struct.__pthread_cond_s }
%struct.__pthread_cond_s = type { %union.__atomic_wide_counter, %union.__atomic_wide_counter, [2 x i32], [2 x i32], i32, i32, [2 x i32] }
%union.__atomic_wide_counter = type { i64 }
%class.Parker = type { %class.PlatformParker }
%class.PlatformParker = type { i32, i32, [1 x %union.pthread_mutex_t], [2 x %union.pthread_cond_t] }
%class.LockStack = type { i32, i64, [8 x ptr] }
%class.TimeStamp = type { i64 }

@_ZN11LIR_OprFact10illegalOprE = external global %class.LIR_Opr, align 8
@_ZN6Thread12_thr_currentE = external thread_local global ptr, align 8

; Function Attrs: mustprogress nounwind uwtable
define linkonce_odr hidden noundef ptr @_ZN6Thread15current_or_nullEv() #1 comdat align 2 {
  %1 = call align 8 ptr @llvm.threadlocal.address.p0(ptr align 8 @_ZN6Thread12_thr_currentE)
  %2 = load ptr, ptr %1, align 8
  ret ptr %2
}

; Function Attrs: mustprogress nounwind uwtable
define linkonce_odr hidden noundef ptr @_ZN10JavaThread4castEP6Thread(ptr noundef %0) #1 comdat align 2 {
  %2 = alloca ptr, align 8
  store ptr %0, ptr %2, align 8
  %3 = load ptr, ptr %2, align 8
  ret ptr %3
}

; Function Attrs: mustprogress nounwind uwtable
define linkonce_odr hidden noundef ptr @_ZN6Thread7currentEv() #1 comdat align 2 {
  %1 = alloca ptr, align 8
  %2 = call noundef ptr @_ZN6Thread15current_or_nullEv()
  store ptr %2, ptr %1, align 8
  %3 = load ptr, ptr %1, align 8
  ret ptr %3
}

; Function Attrs: mustprogress nounwind uwtable
define linkonce_odr hidden noundef ptr @_ZN14CompilerThread4castEP6Thread(ptr noundef %0) #1 comdat align 2 {
  %2 = alloca ptr, align 8
  store ptr %0, ptr %2, align 8
  %3 = load ptr, ptr %2, align 8
  ret ptr %3
}

; Function Attrs: mustprogress nounwind uwtable
define linkonce_odr hidden noundef ptr @_ZN10JavaThread7currentEv() #1 comdat align 2 {
  %1 = call noundef ptr @_ZN6Thread7currentEv()
  %2 = call noundef ptr @_ZN10JavaThread4castEP6Thread(ptr noundef %1)
  ret ptr %2
}

; Function Attrs: mustprogress nounwind uwtable
define linkonce_odr hidden noundef ptr @_ZN14CompilerThread3envEv(ptr noundef nonnull align 8 dereferenceable(1880) %0) #1 comdat align 2 {
  %2 = alloca ptr, align 8
  store ptr %0, ptr %2, align 8
  %3 = load ptr, ptr %2, align 8
  %4 = getelementptr inbounds %class.CompilerThread, ptr %3, i32 0, i32 2
  %5 = load ptr, ptr %4, align 8
  ret ptr %5
}

; Function Attrs: mustprogress nounwind uwtable
define linkonce_odr hidden noundef ptr @_ZN14CompilerThread7currentEv() #1 comdat align 2 {
  %1 = call noundef ptr @_ZN10JavaThread7currentEv()
  %2 = call noundef ptr @_ZN14CompilerThread4castEP6Thread(ptr noundef %1)
  ret ptr %2
}

; Function Attrs: mustprogress nounwind uwtable
define linkonce_odr hidden noundef i64 @_ZNK7LIR_Opr5valueEv(ptr noundef nonnull align 8 dereferenceable(8) %0) #1 comdat align 2 {
  %2 = alloca ptr, align 8
  store ptr %0, ptr %2, align 8
  %3 = load ptr, ptr %2, align 8
  %4 = getelementptr inbounds %class.LIR_Opr, ptr %3, i32 0, i32 0
  %5 = load i64, ptr %4, align 8
  ret i64 %5
}

; Function Attrs: mustprogress nounwind uwtable
define linkonce_odr hidden void @_ZN5Label4initEv(ptr noundef nonnull align 8 dereferenceable(33) %0) #1 comdat align 2 {
  %2 = alloca ptr, align 8
  store ptr %0, ptr %2, align 8
  %3 = load ptr, ptr %2, align 8
  %4 = getelementptr inbounds %class.Label, ptr %3, i32 0, i32 0
  store i32 -1, ptr %4, align 8
  %5 = getelementptr inbounds %class.Label, ptr %3, i32 0, i32 2
  store i32 0, ptr %5, align 4
  %6 = getelementptr inbounds %class.Label, ptr %3, i32 0, i32 3
  store ptr null, ptr %6, align 8
  %7 = getelementptr inbounds %class.Label, ptr %3, i32 0, i32 4
  store i8 0, ptr %7, align 8
  ret void
}

; Function Attrs: mustprogress nounwind uwtable
define linkonce_odr hidden noundef i32 @_Z4MAX2IiET_S0_S0_(i32 noundef %0, i32 noundef %1) #1 comdat {
  %3 = alloca i32, align 4
  %4 = alloca i32, align 4
  store i32 %0, ptr %3, align 4
  store i32 %1, ptr %4, align 4
  %5 = load i32, ptr %3, align 4
  %6 = load i32, ptr %4, align 4
  %7 = icmp sgt i32 %5, %6
  br i1 %7, label %8, label %10

8:                                                ; preds = %2
  %9 = load i32, ptr %3, align 4
  br label %12

10:                                               ; preds = %2
  %11 = load i32, ptr %4, align 4
  br label %12

12:                                               ; preds = %10, %8
  %13 = phi i32 [ %9, %8 ], [ %11, %10 ]
  ret i32 %13
}

; Function Attrs: mustprogress nounwind uwtable
define linkonce_odr hidden noundef ptr @_ZNK5ciEnv13compiler_dataEv(ptr noundef nonnull align 8 dereferenceable(1265) %0) #1 comdat align 2 {
  %2 = alloca ptr, align 8
  store ptr %0, ptr %2, align 8
  %3 = load ptr, ptr %2, align 8
  %4 = getelementptr inbounds %class.ciEnv, ptr %3, i32 0, i32 15
  %5 = load ptr, ptr %4, align 8
  ret ptr %5
}

; Function Attrs: mustprogress nounwind uwtable
define linkonce_odr hidden noundef ptr @_ZN5ciEnv7currentEv() #1 comdat align 2 {
  %1 = call noundef ptr @_ZN14CompilerThread7currentEv()
  %2 = call noundef ptr @_ZN14CompilerThread3envEv(ptr noundef nonnull align 8 dereferenceable(1880) %1)
  ret ptr %2
}

; Function Attrs: mustprogress nounwind uwtable
define linkonce_odr hidden noundef i32 @_ZNK7LIR_Opr10kind_fieldEv(ptr noundef nonnull align 8 dereferenceable(8) %0) #1 comdat align 2 {
  %2 = alloca ptr, align 8
  store ptr %0, ptr %2, align 8
  %3 = load ptr, ptr %2, align 8
  %4 = call noundef i64 @_ZNK7LIR_Opr5valueEv(ptr noundef nonnull align 8 dereferenceable(8) %3)
  %5 = and i64 %4, 7
  %6 = trunc i64 %5 to i32
  ret i32 %6
}

; Function Attrs: mustprogress nounwind uwtable
define linkonce_odr hidden noundef ptr @_ZNK7LIR_Opr7pointerEv(ptr noundef nonnull align 8 dereferenceable(8) %0) #1 comdat align 2 {
  %2 = alloca ptr, align 8
  store ptr %0, ptr %2, align 8
  %3 = load ptr, ptr %2, align 8
  %4 = getelementptr inbounds %class.LIR_Opr, ptr %3, i32 0, i32 0
  %5 = load i64, ptr %4, align 8
  %6 = inttoptr i64 %5 to ptr
  ret ptr %6
}

; Function Attrs: mustprogress nounwind uwtable
define linkonce_odr hidden void @_ZN5LabelC2Ev(ptr noundef nonnull align 8 dereferenceable(33) %0) unnamed_addr #1 comdat align 2 {
  %2 = alloca ptr, align 8
  store ptr %0, ptr %2, align 8
  %3 = load ptr, ptr %2, align 8
  call void @_ZN5Label4initEv(ptr noundef nonnull align 8 dereferenceable(33) %3)
  ret void
}

; Function Attrs: mustprogress nounwind uwtable
define linkonce_odr hidden void @_ZN8FrameMap34update_reserved_argument_area_sizeEi(ptr noundef nonnull align 8 dereferenceable(40) %0, i32 noundef %1) #1 comdat align 2 {
  %3 = alloca ptr, align 8
  %4 = alloca i32, align 4
  store ptr %0, ptr %3, align 8
  store i32 %1, ptr %4, align 4
  %5 = load ptr, ptr %3, align 8
  %6 = getelementptr inbounds %class.FrameMap, ptr %5, i32 0, i32 4
  %7 = load i32, ptr %6, align 8
  %8 = load i32, ptr %4, align 4
  %9 = call noundef i32 @_Z4MAX2IiET_S0_S0_(i32 noundef %7, i32 noundef %8)
  %10 = getelementptr inbounds %class.FrameMap, ptr %5, i32 0, i32 4
  store i32 %9, ptr %10, align 8
  ret void
}

; Function Attrs: mustprogress nounwind uwtable
define linkonce_odr hidden noundef ptr @_ZNK11Compilation9frame_mapEv(ptr noundef nonnull align 8 dereferenceable(704) %0) #1 comdat align 2 {
  %2 = alloca ptr, align 8
  store ptr %0, ptr %2, align 8
  %3 = load ptr, ptr %2, align 8
  %4 = getelementptr inbounds %class.Compilation, ptr %3, i32 0, i32 11
  %5 = load ptr, ptr %4, align 8
  ret ptr %5
}

; Function Attrs: mustprogress nounwind uwtable
define linkonce_odr hidden noundef ptr @_ZN11Compilation7currentEv() #1 comdat align 2 {
  %1 = call noundef ptr @_ZN5ciEnv7currentEv()
  %2 = call noundef ptr @_ZNK5ciEnv13compiler_dataEv(ptr noundef nonnull align 8 dereferenceable(1265) %1)
  ret ptr %2
}

; Function Attrs: mustprogress nounwind uwtable
define linkonce_odr hidden i64 @_ZN12LIRGenerator20new_pointer_registerEv(ptr noundef nonnull align 8 dereferenceable(232) %0) #1 comdat align 2 {
  %2 = alloca %class.LIR_Opr, align 8
  %3 = alloca ptr, align 8
  store ptr %0, ptr %3, align 8
  %4 = load ptr, ptr %3, align 8
  %5 = call i64 @_ZN12LIRGenerator12new_registerE9BasicType(ptr noundef nonnull align 8 dereferenceable(232) %4, i8 noundef zeroext 11)
  %6 = getelementptr inbounds %class.LIR_Opr, ptr %2, i32 0, i32 0
  store i64 %5, ptr %6, align 8
  %7 = getelementptr inbounds %class.LIR_Opr, ptr %2, i32 0, i32 0
  %8 = load i64, ptr %7, align 8
  ret i64 %8
}

; Function Attrs: mustprogress nounwind uwtable
define linkonce_odr hidden noundef ptr @_ZNK9LIRAccess3genEv(ptr noundef nonnull align 8 dereferenceable(80) %0) #1 comdat align 2 {
  %2 = alloca ptr, align 8
  store ptr %0, ptr %2, align 8
  %3 = load ptr, ptr %2, align 8
  %4 = getelementptr inbounds %class.LIRAccess, ptr %3, i32 0, i32 0
  %5 = load ptr, ptr %4, align 8
  ret ptr %5
}

; Function Attrs: mustprogress nounwind uwtable
define linkonce_odr hidden noundef i64 @_ZNK11LIR_Address4dispEv(ptr noundef nonnull align 8 dereferenceable(41) %0) #1 comdat align 2 {
  %2 = alloca ptr, align 8
  store ptr %0, ptr %2, align 8
  %3 = load ptr, ptr %2, align 8
  %4 = getelementptr inbounds %class.LIR_Address, ptr %3, i32 0, i32 5
  %5 = load i64, ptr %4, align 8
  ret i64 %5
}

; Function Attrs: mustprogress nounwind uwtable
define linkonce_odr hidden noundef zeroext i1 @_ZNK7LIR_Opr8is_validEv(ptr noundef nonnull align 8 dereferenceable(8) %0) #1 comdat align 2 {
  %2 = alloca ptr, align 8
  store ptr %0, ptr %2, align 8
  %3 = load ptr, ptr %2, align 8
  %4 = call noundef i32 @_ZNK7LIR_Opr10kind_fieldEv(ptr noundef nonnull align 8 dereferenceable(8) %3)
  %5 = icmp ne i32 %4, 7
  ret i1 %5
}

; Function Attrs: mustprogress nounwind uwtable
define linkonce_odr hidden i64 @_ZNK11LIR_Address5indexEv(ptr noundef nonnull align 8 dereferenceable(41) %0) #1 comdat align 2 {
  %2 = alloca %class.LIR_Opr, align 8
  %3 = alloca ptr, align 8
  store ptr %0, ptr %3, align 8
  %4 = load ptr, ptr %3, align 8
  %5 = getelementptr inbounds %class.LIR_Address, ptr %4, i32 0, i32 2
  call void @llvm.memcpy.p0.p0.i64(ptr align 8 %2, ptr align 8 %5, i64 8, i1 false)
  %6 = getelementptr inbounds %class.LIR_Opr, ptr %2, i32 0, i32 0
  %7 = load i64, ptr %6, align 8
  ret i64 %7
}

; Function Attrs: mustprogress nounwind uwtable
define linkonce_odr hidden noundef ptr @_ZNK7LIR_Opr14as_address_ptrEv(ptr noundef nonnull align 8 dereferenceable(8) %0) #1 comdat align 2 {
  %2 = alloca ptr, align 8
  store ptr %0, ptr %2, align 8
  %3 = load ptr, ptr %2, align 8
  %4 = call noundef ptr @_ZNK7LIR_Opr7pointerEv(ptr noundef nonnull align 8 dereferenceable(8) %3)
  %5 = load ptr, ptr %4, align 8
  %6 = getelementptr inbounds ptr, ptr %5, i64 1
  %7 = load ptr, ptr %6, align 8
  %8 = call noundef ptr %7(ptr noundef nonnull align 8 dereferenceable(8) %4)
  ret ptr %8
}

; Function Attrs: mustprogress nounwind uwtable
define linkonce_odr hidden noundef ptr @_ZN7LIR_OprptEv(ptr noundef nonnull align 8 dereferenceable(8) %0) #1 comdat align 2 {
  %2 = alloca ptr, align 8
  store ptr %0, ptr %2, align 8
  %3 = load ptr, ptr %2, align 8
  ret ptr %3
}

; Function Attrs: mustprogress nounwind uwtable
define linkonce_odr hidden i64 @_ZNK9LIRAccess13resolved_addrEv(ptr noundef nonnull align 8 dereferenceable(80) %0) #1 comdat align 2 {
  %2 = alloca %class.LIR_Opr, align 8
  %3 = alloca ptr, align 8
  store ptr %0, ptr %3, align 8
  %4 = load ptr, ptr %3, align 8
  %5 = getelementptr inbounds %class.LIRAccess, ptr %4, i32 0, i32 5
  call void @llvm.memcpy.p0.p0.i64(ptr align 8 %2, ptr align 8 %5, i64 8, i1 false)
  %6 = getelementptr inbounds %class.LIR_Opr, ptr %2, i32 0, i32 0
  %7 = load i64, ptr %6, align 8
  ret i64 %7
}

; Function Attrs: mustprogress nounwind uwtable
define linkonce_odr hidden noundef i64 @_ZNK9LIRAccess10decoratorsEv(ptr noundef nonnull align 8 dereferenceable(80) %0) #1 comdat align 2 {
  %2 = alloca ptr, align 8
  store ptr %0, ptr %2, align 8
  %3 = load ptr, ptr %2, align 8
  %4 = getelementptr inbounds %class.LIRAccess, ptr %3, i32 0, i32 1
  %5 = load i64, ptr %4, align 8
  ret i64 %5
}

; Function Attrs: mustprogress nounwind uwtable
define linkonce_odr hidden void @_ZN8CodeStubC2Ev(ptr noundef nonnull align 8 dereferenceable(88) %0) unnamed_addr #1 comdat align 2 {
  %2 = alloca ptr, align 8
  store ptr %0, ptr %2, align 8
  %3 = load ptr, ptr %2, align 8
  store ptr getelementptr inbounds inrange(-16, 48) ({ [8 x ptr] }, ptr @_ZTV8CodeStub, i32 0, i32 0, i32 2), ptr %3, align 8
  %4 = getelementptr inbounds %class.CodeStub, ptr %3, i32 0, i32 1
  call void @_ZN5LabelC2Ev(ptr noundef nonnull align 8 dereferenceable(33) %4)
  %5 = getelementptr inbounds %class.CodeStub, ptr %3, i32 0, i32 2
  call void @_ZN5LabelC2Ev(ptr noundef nonnull align 8 dereferenceable(33) %5)
  ret void
}

; Function Attrs: mustprogress nounwind uwtable
define hidden void @_ZN18ZLoadBarrierStubC1C2ER9LIRAccess7LIR_OprPh(ptr noundef nonnull align 8 dereferenceable(128) %0, ptr noundef nonnull align 8 dereferenceable(80) %1, i64 %2, ptr noundef %3) unnamed_addr #1 align 2 {
  %5 = alloca %class.LIR_Opr, align 8
  %6 = alloca ptr, align 8
  %7 = alloca ptr, align 8
  %8 = alloca ptr, align 8
  %9 = alloca %class.LIR_Opr, align 8
  %10 = alloca %class.LIR_Opr, align 8
  %11 = alloca ptr, align 8
  %12 = getelementptr inbounds %class.LIR_Opr, ptr %5, i32 0, i32 0
  store i64 %2, ptr %12, align 8
  store ptr %0, ptr %6, align 8
  store ptr %1, ptr %7, align 8
  store ptr %3, ptr %8, align 8
  %13 = load ptr, ptr %6, align 8
  call void @_ZN8CodeStubC2Ev(ptr noundef nonnull align 8 dereferenceable(88) %13)
  store ptr getelementptr inbounds inrange(-16, 48) ({ [8 x ptr] }, ptr @_ZTV18ZLoadBarrierStubC1, i32 0, i32 0, i32 2), ptr %13, align 8
  %14 = getelementptr inbounds %class.ZLoadBarrierStubC1, ptr %13, i32 0, i32 1
  %15 = load ptr, ptr %7, align 8
  %16 = call noundef i64 @_ZNK9LIRAccess10decoratorsEv(ptr noundef nonnull align 8 dereferenceable(80) %15)
  store i64 %16, ptr %14, align 8
  %17 = getelementptr inbounds %class.ZLoadBarrierStubC1, ptr %13, i32 0, i32 2
  %18 = load ptr, ptr %7, align 8
  %19 = call i64 @_ZNK9LIRAccess13resolved_addrEv(ptr noundef nonnull align 8 dereferenceable(80) %18)
  %20 = getelementptr inbounds %class.LIR_Opr, ptr %17, i32 0, i32 0
  store i64 %19, ptr %20, align 8
  %21 = getelementptr inbounds %class.ZLoadBarrierStubC1, ptr %13, i32 0, i32 3
  call void @llvm.memcpy.p0.p0.i64(ptr align 8 %21, ptr align 8 %5, i64 8, i1 false)
  %22 = getelementptr inbounds %class.ZLoadBarrierStubC1, ptr %13, i32 0, i32 4
  call void @llvm.memcpy.p0.p0.i64(ptr align 8 %22, ptr align 8 @_ZN11LIR_OprFact10illegalOprE, i64 8, i1 false)
  %23 = getelementptr inbounds %class.ZLoadBarrierStubC1, ptr %13, i32 0, i32 5
  %24 = load ptr, ptr %8, align 8
  store ptr %24, ptr %23, align 8
  %25 = getelementptr inbounds %class.ZLoadBarrierStubC1, ptr %13, i32 0, i32 2
  %26 = call noundef ptr @_ZN7LIR_OprptEv(ptr noundef nonnull align 8 dereferenceable(8) %25)
  %27 = call noundef ptr @_ZNK7LIR_Opr14as_address_ptrEv(ptr noundef nonnull align 8 dereferenceable(8) %26)
  %28 = call i64 @_ZNK11LIR_Address5indexEv(ptr noundef nonnull align 8 dereferenceable(41) %27)
  %29 = getelementptr inbounds %class.LIR_Opr, ptr %9, i32 0, i32 0
  store i64 %28, ptr %29, align 8
  %30 = call noundef ptr @_ZN7LIR_OprptEv(ptr noundef nonnull align 8 dereferenceable(8) %9)
  %31 = call noundef zeroext i1 @_ZNK7LIR_Opr8is_validEv(ptr noundef nonnull align 8 dereferenceable(8) %30)
  br i1 %31, label %38, label %32

32:                                               ; preds = %4
  %33 = getelementptr inbounds %class.ZLoadBarrierStubC1, ptr %13, i32 0, i32 2
  %34 = call noundef ptr @_ZN7LIR_OprptEv(ptr noundef nonnull align 8 dereferenceable(8) %33)
  %35 = call noundef ptr @_ZNK7LIR_Opr14as_address_ptrEv(ptr noundef nonnull align 8 dereferenceable(8) %34)
  %36 = call noundef i64 @_ZNK11LIR_Address4dispEv(ptr noundef nonnull align 8 dereferenceable(41) %35)
  %37 = icmp ne i64 %36, 0
  br label %38

38:                                               ; preds = %32, %4
  %39 = phi i1 [ true, %4 ], [ %37, %32 ]
  br i1 %39, label %40, label %46

40:                                               ; preds = %38
  %41 = load ptr, ptr %7, align 8
  %42 = call noundef ptr @_ZNK9LIRAccess3genEv(ptr noundef nonnull align 8 dereferenceable(80) %41)
  %43 = call i64 @_ZN12LIRGenerator20new_pointer_registerEv(ptr noundef nonnull align 8 dereferenceable(232) %42)
  %44 = getelementptr inbounds %class.LIR_Opr, ptr %10, i32 0, i32 0
  store i64 %43, ptr %44, align 8
  %45 = getelementptr inbounds %class.ZLoadBarrierStubC1, ptr %13, i32 0, i32 4
  call void @llvm.memcpy.p0.p0.i64(ptr align 8 %45, ptr align 8 %10, i64 8, i1 false)
  br label %46

46:                                               ; preds = %40, %38
  %47 = call noundef ptr @_ZN11Compilation7currentEv()
  %48 = call noundef ptr @_ZNK11Compilation9frame_mapEv(ptr noundef nonnull align 8 dereferenceable(704) %47)
  store ptr %48, ptr %11, align 8
  %49 = load ptr, ptr %11, align 8
  call void @_ZN8FrameMap34update_reserved_argument_area_sizeEi(ptr noundef nonnull align 8 dereferenceable(40) %49, i32 noundef 16)
  ret void
}