; Function Attrs: mustprogress nounwind uwtable
define hidden void @_ZN18ZLoadBarrierStubC1C2ER9LIRAccess7LIR_OprPh(ptr nocapture noundef nonnull align 8 dereferenceable(128) %0, ptr nocapture noundef nonnull readonly align 8 dereferenceable(80) %1, i64 %2, ptr noundef %3) unnamed_addr #0 align 2 {
  %5 = getelementptr inbounds i8, ptr %0, i64 8
  store i32 -1, ptr %5, align 8
  %6 = getelementptr inbounds i8, ptr %0, i64 28
  store i32 0, ptr %6, align 4
  %7 = getelementptr inbounds i8, ptr %0, i64 32
  store ptr null, ptr %7, align 8
  %8 = getelementptr inbounds i8, ptr %0, i64 40
  store i8 0, ptr %8, align 8
  %9 = getelementptr inbounds i8, ptr %0, i64 48
  store i32 -1, ptr %9, align 8
  %10 = getelementptr inbounds i8, ptr %0, i64 68
  store i32 0, ptr %10, align 4
  %11 = getelementptr inbounds i8, ptr %0, i64 72
  store ptr null, ptr %11, align 8
  %12 = getelementptr inbounds i8, ptr %0, i64 80
  store i8 0, ptr %12, align 8
  store ptr getelementptr inbounds inrange(-16, 48) (i8, ptr @_ZTV18ZLoadBarrierStubC1, i64 16), ptr %0, align 8
  %13 = getelementptr inbounds i8, ptr %0, i64 88
  %14 = getelementptr inbounds i8, ptr %1, i64 8
  %15 = load i64, ptr %14, align 8
  store i64 %15, ptr %13, align 8
  %16 = getelementptr inbounds i8, ptr %0, i64 96
  %17 = getelementptr inbounds i8, ptr %1, i64 56
  %.sroa.0.0.copyload.i = load i64, ptr %17, align 8
  store i64 %.sroa.0.0.copyload.i, ptr %16, align 8
  %18 = getelementptr inbounds i8, ptr %0, i64 104
  store i64 %2, ptr %18, align 8
  %19 = getelementptr inbounds i8, ptr %0, i64 112
  %20 = load i64, ptr @_ZN11LIR_OprFact10illegalOprE, align 8
  store i64 %20, ptr %19, align 8
  %21 = getelementptr inbounds i8, ptr %0, i64 120
  store ptr %3, ptr %21, align 8
  %22 = inttoptr i64 %.sroa.0.0.copyload.i to ptr
  %23 = load ptr, ptr %22, align 8
  %24 = getelementptr inbounds i8, ptr %23, i64 8
  %25 = load ptr, ptr %24, align 8
  %26 = tail call noundef ptr %25(ptr noundef nonnull align 8 dereferenceable(8) %22) #10
  %27 = getelementptr inbounds i8, ptr %26, i64 16
  %.sroa.0.0.copyload.i7 = load i64, ptr %27, align 8
  %28 = and i64 %.sroa.0.0.copyload.i7, 7
  %.not8 = icmp eq i64 %28, 7
  br i1 %.not8, label %29, label %.critedge

29:                                               ; preds = %4
  %30 = load i64, ptr %16, align 8
  %31 = inttoptr i64 %30 to ptr
  %32 = load ptr, ptr %31, align 8
  %33 = getelementptr inbounds i8, ptr %32, i64 8
  %34 = load ptr, ptr %33, align 8
  %35 = tail call noundef ptr %34(ptr noundef nonnull align 8 dereferenceable(8) %31) #10
  %36 = getelementptr inbounds i8, ptr %35, i64 32
  %37 = load i64, ptr %36, align 8
  %.not = icmp eq i64 %37, 0
  br i1 %.not, label %40, label %.critedge

.critedge:                                        ; preds = %4, %29
  %38 = load ptr, ptr %1, align 8
  %39 = tail call i64 @_ZN12LIRGenerator12new_registerE9BasicType(ptr noundef nonnull align 8 dereferenceable(232) %38, i8 noundef zeroext 11) #10
  store i64 %39, ptr %19, align 8
  br label %40

40:                                               ; preds = %.critedge, %29
  %41 = tail call align 8 ptr @llvm.threadlocal.address.p0(ptr align 8 @_ZN6Thread12_thr_currentE)
  %42 = load ptr, ptr %41, align 8
  %43 = getelementptr inbounds i8, ptr %42, i64 1808
  %44 = load ptr, ptr %43, align 8
  %45 = getelementptr inbounds i8, ptr %44, i64 128
  %46 = load ptr, ptr %45, align 8
  %47 = getelementptr inbounds i8, ptr %46, i64 80
  %48 = load ptr, ptr %47, align 8
  %49 = getelementptr inbounds i8, ptr %48, i64 16
  %50 = load i32, ptr %49, align 8
  %51 = tail call noundef i32 @llvm.smax.i32(i32 %50, i32 16)
  store i32 %51, ptr %49, align 8
  ret void
}